target datalayout = "e-m:e-p270:32:32-p271:32:32-p272:64:64-i64:64-i128:128-f80:128-n8:16:32:64-S128"
target triple = "x86_64-pc-linux-gnu"

%struct.SDL_HIDAPI_Device = type { ptr, ptr, ptr, ptr, i16, i16, i16, ptr, %struct.SDL_GUID, i32, i32, i32, i32, i16, i16, i8, i32, i32, i32, ptr, ptr, ptr, ptr, %struct.SDL_AtomicInt, i32, ptr, i8, i8, i8, ptr, i32, ptr, ptr }
%struct.SDL_GUID = type { [16 x i8] }
%struct.SDL_AtomicInt = type { i32 }
%struct.ShieldCommandReport_t = type { i8, i8, i8, [30 x i8] }
%struct.SDL_DriverShield_Context = type { i8, i8, i8, i8, i8, i64, i8, i8, i8, i8, i64, [64 x i8] }

@.str.3 = private unnamed_addr constant [37 x i8] c"Command data exceeds HID report size\00", align 1
@.str.4 = private unnamed_addr constant [29 x i8] c"Couldn't send command packet\00", align 1
@.str.7 = private unnamed_addr constant [49 x i8] c"Effect data must at least contain a command byte\00", align 1

; Function Attrs: nounwind uwtable
define internal zeroext i1 @HIDAPI_DriverShield_SendCommand(ptr noundef %0, i8 noundef zeroext %1, ptr noundef %2, i32 noundef %3) #0 {
  %5 = alloca i1, align 1
  %6 = alloca ptr, align 8
  %7 = alloca i8, align 1
  %8 = alloca ptr, align 8
  %9 = alloca i32, align 4
  %10 = alloca ptr, align 8
  %11 = alloca %struct.ShieldCommandReport_t, align 1
  %12 = alloca i32, align 4
  store ptr %0, ptr %6, align 8
  store i8 %1, ptr %7, align 1
  store ptr %2, ptr %8, align 8
  store i32 %3, ptr %9, align 4
  call void @llvm.lifetime.start.p0(i64 8, ptr %10) #6
  %13 = load ptr, ptr %6, align 8
  %14 = getelementptr inbounds nuw %struct.SDL_HIDAPI_Device, ptr %13, i32 0, i32 20
  %15 = load ptr, ptr %14, align 8
  store ptr %15, ptr %10, align 8
  call void @llvm.lifetime.start.p0(i64 33, ptr %11) #6
  %16 = load i32, ptr %9, align 4
  %17 = sext i32 %16 to i64
  %18 = icmp ugt i64 %17, 30
  br i1 %18, label %19, label %21

19:                                               ; preds = %4
  %20 = call zeroext i1 (ptr, ...) @SDL_SetError_REAL(ptr noundef @.str.3)
  store i1 %20, ptr %5, align 1
  store i32 1, ptr %12, align 4
  br label %61

21:                                               ; preds = %4
  %22 = call zeroext i1 @SDL_HIDAPI_LockRumble()
  br i1 %22, label %24, label %23

23:                                               ; preds = %21
  store i1 false, ptr %5, align 1
  store i32 1, ptr %12, align 4
  br label %61

24:                                               ; preds = %21
  %25 = getelementptr inbounds nuw %struct.ShieldCommandReport_t, ptr %11, i32 0, i32 0
  store i8 4, ptr %25, align 1
  %26 = load i8, ptr %7, align 1
  %27 = getelementptr inbounds nuw %struct.ShieldCommandReport_t, ptr %11, i32 0, i32 1
  store i8 %26, ptr %27, align 1
  %28 = load ptr, ptr %10, align 8
  %29 = getelementptr inbounds nuw %struct.SDL_DriverShield_Context, ptr %28, i32 0, i32 0
  %30 = load i8, ptr %29, align 8
  %31 = add i8 %30, 1
  store i8 %31, ptr %29, align 8
  %32 = getelementptr inbounds nuw %struct.ShieldCommandReport_t, ptr %11, i32 0, i32 2
  store i8 %30, ptr %32, align 1
  %33 = load ptr, ptr %8, align 8
  %34 = icmp ne ptr %33, null
  br i1 %34, label %35, label %41

35:                                               ; preds = %24
  %36 = getelementptr inbounds nuw %struct.ShieldCommandReport_t, ptr %11, i32 0, i32 3
  %37 = getelementptr inbounds [30 x i8], ptr %36, i64 0, i64 0
  %38 = load ptr, ptr %8, align 8
  %39 = load i32, ptr %9, align 4
  %40 = sext i32 %39 to i64
  call void @llvm.memcpy.p0.p0.i64(ptr align 1 %37, ptr align 1 %38, i64 %40, i1 false)
  br label %41

41:                                               ; preds = %35, %24
  %42 = load i32, ptr %9, align 4
  %43 = sext i32 %42 to i64
  %44 = icmp ne i64 %43, 30
  br i1 %44, label %45, label %53

45:                                               ; preds = %41
  %46 = getelementptr inbounds nuw %struct.ShieldCommandReport_t, ptr %11, i32 0, i32 3
  %47 = load i32, ptr %9, align 4
  %48 = sext i32 %47 to i64
  %49 = getelementptr inbounds [30 x i8], ptr %46, i64 0, i64 %48
  %50 = load i32, ptr %9, align 4
  %51 = sext i32 %50 to i64
  %52 = sub i64 30, %51
  call void @llvm.memset.p0.i64(ptr align 1 %49, i8 0, i64 %52, i1 false)
  br label %53

53:                                               ; preds = %45, %41
  %54 = load ptr, ptr %6, align 8
  %55 = call i32 @SDL_HIDAPI_SendRumbleAndUnlock(ptr noundef %54, ptr noundef %11, i32 noundef 33)
  %56 = sext i32 %55 to i64
  %57 = icmp ne i64 %56, 33
  br i1 %57, label %58, label %60

58:                                               ; preds = %53
  %59 = call zeroext i1 (ptr, ...) @SDL_SetError_REAL(ptr noundef @.str.4)
  store i1 %59, ptr %5, align 1
  store i32 1, ptr %12, align 4
  br label %61

60:                                               ; preds = %53
  store i1 true, ptr %5, align 1
  store i32 1, ptr %12, align 4
  br label %61

61:                                               ; preds = %60, %58, %23, %19
  call void @llvm.lifetime.end.p0(i64 33, ptr %11) #6
  call void @llvm.lifetime.end.p0(i64 8, ptr %10) #6
  %62 = load i1, ptr %5, align 1
  ret i1 %62
}

; Function Attrs: nounwind uwtable
define internal zeroext i1 @HIDAPI_DriverShield_SendJoystickEffect(ptr noundef %0, ptr noundef %1, ptr noundef %2, i32 noundef %3) #0 {
  %5 = alloca i1, align 1
  %6 = alloca ptr, align 8
  %7 = alloca ptr, align 8
  %8 = alloca ptr, align 8
  %9 = alloca i32, align 4
  %10 = alloca ptr, align 8
  %11 = alloca i32, align 4
  store ptr %0, ptr %6, align 8
  store ptr %1, ptr %7, align 8
  store ptr %2, ptr %8, align 8
  store i32 %3, ptr %9, align 4
  call void @llvm.lifetime.start.p0(i64 8, ptr %10) #6
  %12 = load ptr, ptr %8, align 8
  store ptr %12, ptr %10, align 8
  %13 = load i32, ptr %9, align 4
  %14 = icmp sgt i32 %13, 1
  br i1 %14, label %15, label %25

15:                                               ; preds = %4
  %16 = load ptr, ptr %6, align 8
  %17 = load ptr, ptr %10, align 8
  %18 = getelementptr inbounds i8, ptr %17, i64 0
  %19 = load i8, ptr %18, align 1
  %20 = load ptr, ptr %10, align 8
  %21 = getelementptr inbounds i8, ptr %20, i64 1
  %22 = load i32, ptr %9, align 4
  %23 = sub nsw i32 %22, 1
  %24 = call zeroext i1 @HIDAPI_DriverShield_SendCommand(ptr noundef %16, i8 noundef zeroext %19, ptr noundef %21, i32 noundef %23)
  store i1 %24, ptr %5, align 1
  store i32 1, ptr %11, align 4
  br label %36

25:                                               ; preds = %4
  %26 = load i32, ptr %9, align 4
  %27 = icmp eq i32 %26, 1
  br i1 %27, label %28, label %34

28:                                               ; preds = %25
  %29 = load ptr, ptr %6, align 8
  %30 = load ptr, ptr %10, align 8
  %31 = getelementptr inbounds i8, ptr %30, i64 0
  %32 = load i8, ptr %31, align 1
  %33 = call zeroext i1 @HIDAPI_DriverShield_SendCommand(ptr noundef %29, i8 noundef zeroext %32, ptr noundef null, i32 noundef 0)
  store i1 %33, ptr %5, align 1
  store i32 1, ptr %11, align 4
  br label %36

34:                                               ; preds = %25
  %35 = call zeroext i1 (ptr, ...) @SDL_SetError_REAL(ptr noundef @.str.7)
  store i1 %35, ptr %5, align 1
  store i32 1, ptr %11, align 4
  br label %36

36:                                               ; preds = %34, %28, %15
  call void @llvm.lifetime.end.p0(i64 8, ptr %10) #6
  %37 = load i1, ptr %5, align 1
  ret i1 %37
}