; Function Attrs: nounwind uwtable
define internal zeroext i1 @HIDAPI_DriverShield_SendJoystickEffect(ptr noundef %0, ptr readnone captures(none) %1, ptr noundef readonly captures(none) %2, i32 noundef %3) #0 {
  %5 = alloca %struct.ShieldCommandReport_t, align 1
  %6 = alloca %struct.ShieldCommandReport_t, align 1
  %7 = icmp sgt i32 %3, 1
  br i1 %7, label %8, label %33

8:                                                ; preds = %4
  %9 = load i8, ptr %2, align 1
  %10 = getelementptr inbounds nuw i8, ptr %2, i64 1
  %11 = add nsw i32 %3, -1
  %12 = getelementptr inbounds nuw i8, ptr %0, i64 112
  %13 = load ptr, ptr %12, align 8
  call void @llvm.lifetime.start.p0(i64 33, ptr nonnull %6) #8
  %14 = zext nneg i32 %11 to i64
  %15 = icmp samesign ugt i32 %11, 30
  br i1 %15, label %16, label %18

16:                                               ; preds = %8
  %17 = tail call zeroext i1 (ptr, ...) @SDL_SetError_REAL(ptr noundef nonnull @.str.3) #8
  br label %HIDAPI_DriverShield_SendCommand.exit

18:                                               ; preds = %8
  %19 = tail call zeroext i1 @SDL_HIDAPI_LockRumble() #8
  br i1 %19, label %20, label %HIDAPI_DriverShield_SendCommand.exit

20:                                               ; preds = %18
  store i8 4, ptr %6, align 1
  %21 = getelementptr inbounds nuw i8, ptr %6, i64 1
  store i8 %9, ptr %21, align 1
  %22 = load i8, ptr %13, align 8
  %23 = add i8 %22, 1
  store i8 %23, ptr %13, align 8
  %24 = getelementptr inbounds nuw i8, ptr %6, i64 2
  store i8 %22, ptr %24, align 1
  %25 = getelementptr inbounds nuw i8, ptr %6, i64 3
  call void @llvm.memcpy.p0.p0.i64(ptr nonnull align 1 %25, ptr nonnull readonly align 1 %10, i64 %14, i1 false)
  %.not13.i = icmp eq i32 %11, 30
  br i1 %.not13.i, label %29, label %26

26:                                               ; preds = %20
  %27 = getelementptr inbounds nuw [30 x i8], ptr %25, i64 0, i64 %14
  %28 = sub nuw nsw i64 30, %14
  call void @llvm.memset.p0.i64(ptr nonnull align 1 %27, i8 0, i64 %28, i1 false)
  br label %29

29:                                               ; preds = %26, %20
  %30 = call i32 @SDL_HIDAPI_SendRumbleAndUnlock(ptr noundef nonnull %0, ptr noundef nonnull %6, i32 noundef 33) #8
  %.not14.i = icmp eq i32 %30, 33
  br i1 %.not14.i, label %HIDAPI_DriverShield_SendCommand.exit, label %31

31:                                               ; preds = %29
  %32 = call zeroext i1 (ptr, ...) @SDL_SetError_REAL(ptr noundef nonnull @.str.4) #8
  br label %HIDAPI_DriverShield_SendCommand.exit

HIDAPI_DriverShield_SendCommand.exit:             ; preds = %16, %18, %29, %31
  %.0.i = phi i1 [ %17, %16 ], [ %32, %31 ], [ false, %18 ], [ true, %29 ]
  call void @llvm.lifetime.end.p0(i64 33, ptr nonnull %6) #8
  br label %51

33:                                               ; preds = %4
  %34 = icmp eq i32 %3, 1
  br i1 %34, label %35, label %49

35:                                               ; preds = %33
  %36 = load i8, ptr %2, align 1
  %37 = getelementptr inbounds nuw i8, ptr %0, i64 112
  %38 = load ptr, ptr %37, align 8
  call void @llvm.lifetime.start.p0(i64 33, ptr nonnull %5) #8
  %39 = tail call zeroext i1 @SDL_HIDAPI_LockRumble() #8
  br i1 %39, label %40, label %HIDAPI_DriverShield_SendCommand.exit12

40:                                               ; preds = %35
  store i8 4, ptr %5, align 1
  %41 = getelementptr inbounds nuw i8, ptr %5, i64 1
  store i8 %36, ptr %41, align 1
  %42 = load i8, ptr %38, align 8
  %43 = add i8 %42, 1
  store i8 %43, ptr %38, align 8
  %44 = getelementptr inbounds nuw i8, ptr %5, i64 2
  store i8 %42, ptr %44, align 1
  %45 = getelementptr inbounds nuw i8, ptr %5, i64 3
  call void @llvm.memset.p0.i64(ptr noundef nonnull align 1 dereferenceable(30) %45, i8 0, i64 30, i1 false)
  %46 = call i32 @SDL_HIDAPI_SendRumbleAndUnlock(ptr noundef nonnull %0, ptr noundef nonnull %5, i32 noundef 33) #8
  %.not14.i11 = icmp eq i32 %46, 33
  br i1 %.not14.i11, label %HIDAPI_DriverShield_SendCommand.exit12, label %47

47:                                               ; preds = %40
  %48 = call zeroext i1 (ptr, ...) @SDL_SetError_REAL(ptr noundef nonnull @.str.4) #8
  br label %HIDAPI_DriverShield_SendCommand.exit12

HIDAPI_DriverShield_SendCommand.exit12:           ; preds = %35, %40, %47
  %.0.i10 = phi i1 [ %48, %47 ], [ false, %35 ], [ true, %40 ]
  call void @llvm.lifetime.end.p0(i64 33, ptr nonnull %5) #8
  br label %51

49:                                               ; preds = %33
  %50 = tail call zeroext i1 (ptr, ...) @SDL_SetError_REAL(ptr noundef nonnull @.str.7) #8
  br label %51

51:                                               ; preds = %49, %HIDAPI_DriverShield_SendCommand.exit12, %HIDAPI_DriverShield_SendCommand.exit
  %.0 = phi i1 [ %.0.i, %HIDAPI_DriverShield_SendCommand.exit ], [ %.0.i10, %HIDAPI_DriverShield_SendCommand.exit12 ], [ %50, %49 ]
  ret i1 %.0
}